target datalayout = "e-m:e-p270:32:32-p271:32:32-p272:64:64-i64:64-i128:128-f80:128-n8:16:32:64-S128"
target triple = "x86_64-pc-linux-gnu"

%struct._zend_json_globals = type { i32, i32, i32 }
%struct._zval_struct = type { %union._zend_value, %union.anon, %union.anon.2 }
%union._zend_value = type { i64 }
%union.anon = type { i32 }
%union.anon.2 = type { i32 }
%struct._php_json_parser = type { %struct._php_json_scanner, ptr, i32, i32, %struct._php_json_parser_methods }
%struct._php_json_scanner = type { ptr, ptr, ptr, ptr, ptr, ptr, ptr, %struct._zval_struct, i32, i32, i32, i32, i32, i32 }
%struct._php_json_parser_methods = type { ptr, ptr, ptr, ptr, ptr, ptr, ptr, ptr }

@json_globals = dso_local global %struct._zend_json_globals zeroinitializer, align 4

; Function Attrs: nounwind uwtable
define dso_local zeroext i1 @php_json_validate_ex(ptr noundef %0, i64 noundef %1, i64 noundef %2, i64 noundef %3) #0 {
  %5 = alloca i1, align 1
  %6 = alloca ptr, align 8
  %7 = alloca i64, align 8
  %8 = alloca i64, align 8
  %9 = alloca i64, align 8
  %10 = alloca %struct._php_json_parser, align 8
  %11 = alloca %struct._zval_struct, align 8
  %12 = alloca ptr, align 8
  %13 = alloca i32, align 4
  %14 = alloca i32, align 4
  store ptr %0, ptr %6, align 8, !tbaa !20
  store i64 %1, ptr %7, align 8, !tbaa !22
  store i64 %2, ptr %8, align 8, !tbaa !22
  store i64 %3, ptr %9, align 8, !tbaa !22
  call void @llvm.lifetime.start.p0(i64 176, ptr %10) #14
  call void @llvm.lifetime.start.p0(i64 16, ptr %11) #14
  call void @llvm.lifetime.start.p0(i64 8, ptr %12) #14
  %15 = call ptr @php_json_get_validate_methods()
  store ptr %15, ptr %12, align 8, !tbaa !32
  %16 = load ptr, ptr %6, align 8, !tbaa !20
  %17 = load i64, ptr %7, align 8, !tbaa !22
  %18 = load i64, ptr %8, align 8, !tbaa !22
  %19 = trunc i64 %18 to i32
  %20 = load i64, ptr %9, align 8, !tbaa !22
  %21 = trunc i64 %20 to i32
  %22 = load ptr, ptr %12, align 8, !tbaa !32
  call void @php_json_parser_init_ex(ptr noundef %10, ptr noundef %11, ptr noundef %16, i64 noundef %17, i32 noundef %19, i32 noundef %21, ptr noundef %22)
  %23 = call i32 @php_json_yyparse(ptr noundef %10)
  %24 = icmp ne i32 %23, 0
  br i1 %24, label %25, label %28

25:                                               ; preds = %4
  call void @llvm.lifetime.start.p0(i64 4, ptr %13) #14
  %26 = call i32 @php_json_parser_error_code(ptr noundef %10)
  store i32 %26, ptr %13, align 4, !tbaa !4
  %27 = load i32, ptr %13, align 4, !tbaa !4
  store i32 %27, ptr getelementptr inbounds nuw (%struct._zend_json_globals, ptr @json_globals, i32 0, i32 2), align 4, !tbaa !12
  store i1 false, ptr %5, align 1
  store i32 1, ptr %14, align 4
  call void @llvm.lifetime.end.p0(i64 4, ptr %13) #14
  br label %29

28:                                               ; preds = %4
  store i1 true, ptr %5, align 1
  store i32 1, ptr %14, align 4
  br label %29

29:                                               ; preds = %28, %25
  call void @llvm.lifetime.end.p0(i64 8, ptr %12) #14
  call void @llvm.lifetime.end.p0(i64 16, ptr %11) #14
  call void @llvm.lifetime.end.p0(i64 176, ptr %10) #14
  %30 = load i1, ptr %5, align 1
  ret i1 %30
}