; Function Attrs: nounwind uwtable
define dso_local noundef zeroext i1 @php_json_validate_ex(ptr noundef %0, i64 noundef %1, i64 noundef %2, i64 noundef %3) local_unnamed_addr #0 {
  %5 = alloca %struct._php_json_parser, align 8
  %6 = alloca %struct._zval_struct, align 8
  call void @llvm.lifetime.start.p0(i64 176, ptr nonnull %5) #13
  call void @llvm.lifetime.start.p0(i64 16, ptr nonnull %6) #13
  %7 = tail call ptr @php_json_get_validate_methods() #13
  %8 = trunc i64 %2 to i32
  %9 = trunc i64 %3 to i32
  call void @php_json_parser_init_ex(ptr noundef nonnull %5, ptr noundef nonnull %6, ptr noundef %0, i64 noundef %1, i32 noundef %8, i32 noundef %9, ptr noundef %7) #13
  %10 = call i32 @php_json_yyparse(ptr noundef nonnull %5) #13
  %.not = icmp eq i32 %10, 0
  br i1 %.not, label %13, label %11

11:                                               ; preds = %4
  %12 = call i32 @php_json_parser_error_code(ptr noundef nonnull %5) #13
  store i32 %12, ptr getelementptr inbounds nuw (i8, ptr @json_globals, i64 8), align 4, !tbaa !31
  br label %13

13:                                               ; preds = %4, %11
  call void @llvm.lifetime.end.p0(i64 16, ptr nonnull %6) #13
  call void @llvm.lifetime.end.p0(i64 176, ptr nonnull %5) #13
  ret i1 %.not
}